target datalayout = "e-m:e-p270:32:32-p271:32:32-p272:64:64-i64:64-i128:128-f80:128-n8:16:32:64-S128"
target triple = "x86_64-pc-linux-gnu"

%struct._generic_N_Vector = type { ptr, ptr, ptr }
%struct._generic_N_Vector_Ops = type { ptr, ptr, ptr, ptr, ptr, ptr, ptr, ptr, ptr, ptr, ptr, ptr, ptr, ptr, ptr, ptr, ptr, ptr, ptr, ptr, ptr, ptr, ptr, ptr, ptr, ptr, ptr, ptr, ptr, ptr, ptr, ptr, ptr, ptr, ptr, ptr, ptr, ptr, ptr, ptr, ptr, ptr, ptr, ptr, ptr, ptr, ptr, ptr, ptr, ptr, ptr, ptr, ptr, ptr, ptr, ptr }

; Function Attrs: nounwind uwtable
define i32 @arkCheckNvector(ptr noundef %0) #0 {
  %2 = alloca i32, align 4
  %3 = alloca ptr, align 8
  store ptr %0, ptr %3, align 8, !tbaa !7
  %4 = load ptr, ptr %3, align 8, !tbaa !7
  %5 = getelementptr inbounds nuw %struct._generic_N_Vector, ptr %4, i32 0, i32 1
  %6 = load ptr, ptr %5, align 8, !tbaa !31
  %7 = getelementptr inbounds nuw %struct._generic_N_Vector_Ops, ptr %6, i32 0, i32 1
  %8 = load ptr, ptr %7, align 8, !tbaa !208
  %9 = icmp eq ptr %8, null
  br i1 %9, label %80, label %10

10:                                               ; preds = %1
  %11 = load ptr, ptr %3, align 8, !tbaa !7
  %12 = getelementptr inbounds nuw %struct._generic_N_Vector, ptr %11, i32 0, i32 1
  %13 = load ptr, ptr %12, align 8, !tbaa !31
  %14 = getelementptr inbounds nuw %struct._generic_N_Vector_Ops, ptr %13, i32 0, i32 3
  %15 = load ptr, ptr %14, align 8, !tbaa !209
  %16 = icmp eq ptr %15, null
  br i1 %16, label %80, label %17

17:                                               ; preds = %10
  %18 = load ptr, ptr %3, align 8, !tbaa !7
  %19 = getelementptr inbounds nuw %struct._generic_N_Vector, ptr %18, i32 0, i32 1
  %20 = load ptr, ptr %19, align 8, !tbaa !31
  %21 = getelementptr inbounds nuw %struct._generic_N_Vector_Ops, ptr %20, i32 0, i32 11
  %22 = load ptr, ptr %21, align 8, !tbaa !210
  %23 = icmp eq ptr %22, null
  br i1 %23, label %80, label %24

24:                                               ; preds = %17
  %25 = load ptr, ptr %3, align 8, !tbaa !7
  %26 = getelementptr inbounds nuw %struct._generic_N_Vector, ptr %25, i32 0, i32 1
  %27 = load ptr, ptr %26, align 8, !tbaa !31
  %28 = getelementptr inbounds nuw %struct._generic_N_Vector_Ops, ptr %27, i32 0, i32 12
  %29 = load ptr, ptr %28, align 8, !tbaa !211
  %30 = icmp eq ptr %29, null
  br i1 %30, label %80, label %31

31:                                               ; preds = %24
  %32 = load ptr, ptr %3, align 8, !tbaa !7
  %33 = getelementptr inbounds nuw %struct._generic_N_Vector, ptr %32, i32 0, i32 1
  %34 = load ptr, ptr %33, align 8, !tbaa !31
  %35 = getelementptr inbounds nuw %struct._generic_N_Vector_Ops, ptr %34, i32 0, i32 14
  %36 = load ptr, ptr %35, align 8, !tbaa !212
  %37 = icmp eq ptr %36, null
  br i1 %37, label %80, label %38

38:                                               ; preds = %31
  %39 = load ptr, ptr %3, align 8, !tbaa !7
  %40 = getelementptr inbounds nuw %struct._generic_N_Vector, ptr %39, i32 0, i32 1
  %41 = load ptr, ptr %40, align 8, !tbaa !31
  %42 = getelementptr inbounds nuw %struct._generic_N_Vector_Ops, ptr %41, i32 0, i32 15
  %43 = load ptr, ptr %42, align 8, !tbaa !213
  %44 = icmp eq ptr %43, null
  br i1 %44, label %80, label %45

45:                                               ; preds = %38
  %46 = load ptr, ptr %3, align 8, !tbaa !7
  %47 = getelementptr inbounds nuw %struct._generic_N_Vector, ptr %46, i32 0, i32 1
  %48 = load ptr, ptr %47, align 8, !tbaa !31
  %49 = getelementptr inbounds nuw %struct._generic_N_Vector_Ops, ptr %48, i32 0, i32 16
  %50 = load ptr, ptr %49, align 8, !tbaa !214
  %51 = icmp eq ptr %50, null
  br i1 %51, label %80, label %52

52:                                               ; preds = %45
  %53 = load ptr, ptr %3, align 8, !tbaa !7
  %54 = getelementptr inbounds nuw %struct._generic_N_Vector, ptr %53, i32 0, i32 1
  %55 = load ptr, ptr %54, align 8, !tbaa !31
  %56 = getelementptr inbounds nuw %struct._generic_N_Vector_Ops, ptr %55, i32 0, i32 17
  %57 = load ptr, ptr %56, align 8, !tbaa !215
  %58 = icmp eq ptr %57, null
  br i1 %58, label %80, label %59

59:                                               ; preds = %52
  %60 = load ptr, ptr %3, align 8, !tbaa !7
  %61 = getelementptr inbounds nuw %struct._generic_N_Vector, ptr %60, i32 0, i32 1
  %62 = load ptr, ptr %61, align 8, !tbaa !31
  %63 = getelementptr inbounds nuw %struct._generic_N_Vector_Ops, ptr %62, i32 0, i32 18
  %64 = load ptr, ptr %63, align 8, !tbaa !216
  %65 = icmp eq ptr %64, null
  br i1 %65, label %80, label %66

66:                                               ; preds = %59
  %67 = load ptr, ptr %3, align 8, !tbaa !7
  %68 = getelementptr inbounds nuw %struct._generic_N_Vector, ptr %67, i32 0, i32 1
  %69 = load ptr, ptr %68, align 8, !tbaa !31
  %70 = getelementptr inbounds nuw %struct._generic_N_Vector_Ops, ptr %69, i32 0, i32 20
  %71 = load ptr, ptr %70, align 8, !tbaa !217
  %72 = icmp eq ptr %71, null
  br i1 %72, label %80, label %73

73:                                               ; preds = %66
  %74 = load ptr, ptr %3, align 8, !tbaa !7
  %75 = getelementptr inbounds nuw %struct._generic_N_Vector, ptr %74, i32 0, i32 1
  %76 = load ptr, ptr %75, align 8, !tbaa !31
  %77 = getelementptr inbounds nuw %struct._generic_N_Vector_Ops, ptr %76, i32 0, i32 21
  %78 = load ptr, ptr %77, align 8, !tbaa !218
  %79 = icmp eq ptr %78, null
  br i1 %79, label %80, label %81

80:                                               ; preds = %73, %66, %59, %52, %45, %38, %31, %24, %17, %10, %1
  store i32 0, ptr %2, align 4
  br label %82

81:                                               ; preds = %73
  store i32 1, ptr %2, align 4
  br label %82

82:                                               ; preds = %81, %80
  %83 = load i32, ptr %2, align 4
  ret i32 %83
}