; Function Attrs: mustprogress nofree norecurse nosync nounwind willreturn memory(read, inaccessiblemem: none) uwtable
define range(i32 0, 2) i32 @arkCheckNvector(ptr noundef readonly captures(none) %0) local_unnamed_addr #9 {
  %2 = getelementptr inbounds nuw i8, ptr %0, i64 8
  %3 = load ptr, ptr %2, align 8, !tbaa !26
  %4 = getelementptr inbounds nuw i8, ptr %3, i64 8
  %5 = load ptr, ptr %4, align 8, !tbaa !63
  %6 = icmp eq ptr %5, null
  br i1 %6, label %47, label %7

7:                                                ; preds = %1
  %8 = getelementptr inbounds nuw i8, ptr %3, i64 24
  %9 = load ptr, ptr %8, align 8, !tbaa !64
  %10 = icmp eq ptr %9, null
  br i1 %10, label %47, label %11

11:                                               ; preds = %7
  %12 = getelementptr inbounds nuw i8, ptr %3, i64 88
  %13 = load ptr, ptr %12, align 8, !tbaa !65
  %14 = icmp eq ptr %13, null
  br i1 %14, label %47, label %15

15:                                               ; preds = %11
  %16 = getelementptr inbounds nuw i8, ptr %3, i64 96
  %17 = load ptr, ptr %16, align 8, !tbaa !66
  %18 = icmp eq ptr %17, null
  br i1 %18, label %47, label %19

19:                                               ; preds = %15
  %20 = getelementptr inbounds nuw i8, ptr %3, i64 112
  %21 = load ptr, ptr %20, align 8, !tbaa !67
  %22 = icmp eq ptr %21, null
  br i1 %22, label %47, label %23

23:                                               ; preds = %19
  %24 = getelementptr inbounds nuw i8, ptr %3, i64 120
  %25 = load ptr, ptr %24, align 8, !tbaa !68
  %26 = icmp eq ptr %25, null
  br i1 %26, label %47, label %27

27:                                               ; preds = %23
  %28 = getelementptr inbounds nuw i8, ptr %3, i64 128
  %29 = load ptr, ptr %28, align 8, !tbaa !69
  %30 = icmp eq ptr %29, null
  br i1 %30, label %47, label %31

31:                                               ; preds = %27
  %32 = getelementptr inbounds nuw i8, ptr %3, i64 136
  %33 = load ptr, ptr %32, align 8, !tbaa !70
  %34 = icmp eq ptr %33, null
  br i1 %34, label %47, label %35

35:                                               ; preds = %31
  %36 = getelementptr inbounds nuw i8, ptr %3, i64 144
  %37 = load ptr, ptr %36, align 8, !tbaa !71
  %38 = icmp eq ptr %37, null
  br i1 %38, label %47, label %39

39:                                               ; preds = %35
  %40 = getelementptr inbounds nuw i8, ptr %3, i64 160
  %41 = load ptr, ptr %40, align 8, !tbaa !72
  %42 = icmp eq ptr %41, null
  br i1 %42, label %47, label %43

43:                                               ; preds = %39
  %44 = getelementptr inbounds nuw i8, ptr %3, i64 168
  %45 = load ptr, ptr %44, align 8, !tbaa !73
  %46 = icmp ne ptr %45, null
  %spec.select = zext i1 %46 to i32
  br label %47

47:                                               ; preds = %43, %1, %7, %11, %15, %19, %23, %27, %31, %35, %39
  %.0 = phi i32 [ 0, %39 ], [ 0, %35 ], [ 0, %31 ], [ 0, %27 ], [ 0, %23 ], [ 0, %19 ], [ 0, %15 ], [ 0, %11 ], [ 0, %7 ], [ 0, %1 ], [ %spec.select, %43 ]
  ret i32 %.0
}